target datalayout = "e-m:e-p270:32:32-p271:32:32-p272:64:64-i64:64-i128:128-f80:128-n8:16:32:64-S128"
target triple = "x86_64-pc-linux-gnu"

%struct.ItemPointerData = type { %struct.BlockIdData, i16 }
%struct.BlockIdData = type { i16, i16 }
%struct.ScanKeyData = type { i32, i16, i16, i32, i32, %struct.FmgrInfo, i64 }
%struct.FmgrInfo = type { ptr, i32, i16, i8, i8, i8, ptr, ptr, ptr }
%struct.FormData_pg_depend = type { i32, i32, i32, i32, i32, i32, i8 }
%struct.HeapTupleData = type { i32, %struct.ItemPointerData, i32, ptr }
%struct.HeapTupleHeaderData = type { %union.anon, %struct.ItemPointerData, i16, i16, i8, [0 x i8] }
%union.anon = type { %struct.HeapTupleFields }
%struct.HeapTupleFields = type { i32, i32, %union.anon.0 }
%union.anon.0 = type { i32 }

; Function Attrs: inlinehint nounwind uwtable
define internal ptr @GETSTRUCT(ptr noundef %0) #3 {
  %2 = alloca ptr, align 8
  store ptr %0, ptr %2, align 8
  %3 = load ptr, ptr %2, align 8
  %4 = getelementptr inbounds nuw %struct.HeapTupleData, ptr %3, i32 0, i32 3
  %5 = load ptr, ptr %4, align 8
  %6 = load ptr, ptr %2, align 8
  %7 = getelementptr inbounds nuw %struct.HeapTupleData, ptr %6, i32 0, i32 3
  %8 = load ptr, ptr %7, align 8
  %9 = getelementptr inbounds nuw %struct.HeapTupleHeaderData, ptr %8, i32 0, i32 4
  %10 = load i8, ptr %9, align 2
  %11 = zext i8 %10 to i32
  %12 = sext i32 %11 to i64
  %13 = getelementptr inbounds i8, ptr %5, i64 %12
  ret ptr %13
}

; Function Attrs: inlinehint nounwind uwtable
define internal i64 @Int32GetDatum(i32 noundef %0) #3 {
  %2 = alloca i32, align 4
  store i32 %0, ptr %2, align 4
  %3 = load i32, ptr %2, align 4
  %4 = sext i32 %3 to i64
  ret i64 %4
}

; Function Attrs: inlinehint nounwind uwtable
define internal i64 @ObjectIdGetDatum(i32 noundef %0) #3 {
  %2 = alloca i32, align 4
  store i32 %0, ptr %2, align 4
  %3 = load i32, ptr %2, align 4
  %4 = zext i32 %3 to i64
  ret i64 %4
}

; Function Attrs: nounwind uwtable
define dso_local i32 @get_index_constraint(i32 noundef %0) #0 {
  %2 = alloca i32, align 4
  %3 = alloca i32, align 4
  %4 = alloca ptr, align 8
  %5 = alloca [3 x %struct.ScanKeyData], align 16
  %6 = alloca ptr, align 8
  %7 = alloca ptr, align 8
  %8 = alloca ptr, align 8
  %9 = alloca i32, align 4
  store i32 %0, ptr %2, align 4
  call void @llvm.lifetime.start.p0(i64 4, ptr %3) #6
  store i32 0, ptr %3, align 4
  call void @llvm.lifetime.start.p0(i64 8, ptr %4) #6
  call void @llvm.lifetime.start.p0(i64 216, ptr %5) #6
  call void @llvm.lifetime.start.p0(i64 8, ptr %6) #6
  call void @llvm.lifetime.start.p0(i64 8, ptr %7) #6
  %10 = call ptr @table_open(i32 noundef 2608, i32 noundef 1)
  store ptr %10, ptr %4, align 8
  %11 = getelementptr inbounds [3 x %struct.ScanKeyData], ptr %5, i64 0, i64 0
  %12 = call i64 @ObjectIdGetDatum(i32 noundef 1259)
  call void @ScanKeyInit(ptr noundef %11, i16 noundef signext 1, i16 noundef zeroext 3, i32 noundef 184, i64 noundef %12)
  %13 = getelementptr inbounds [3 x %struct.ScanKeyData], ptr %5, i64 0, i64 1
  %14 = load i32, ptr %2, align 4
  %15 = call i64 @ObjectIdGetDatum(i32 noundef %14)
  call void @ScanKeyInit(ptr noundef %13, i16 noundef signext 2, i16 noundef zeroext 3, i32 noundef 184, i64 noundef %15)
  %16 = getelementptr inbounds [3 x %struct.ScanKeyData], ptr %5, i64 0, i64 2
  %17 = call i64 @Int32GetDatum(i32 noundef 0)
  call void @ScanKeyInit(ptr noundef %16, i16 noundef signext 3, i16 noundef zeroext 3, i32 noundef 65, i64 noundef %17)
  %18 = load ptr, ptr %4, align 8
  %19 = getelementptr inbounds [3 x %struct.ScanKeyData], ptr %5, i64 0, i64 0
  %20 = call ptr @systable_beginscan(ptr noundef %18, i32 noundef 2673, i1 noundef zeroext true, ptr noundef null, i32 noundef 3, ptr noundef %19)
  store ptr %20, ptr %6, align 8
  br label %21

21:                                               ; preds = %50, %1
  %22 = load ptr, ptr %6, align 8
  %23 = call ptr @systable_getnext(ptr noundef %22)
  store ptr %23, ptr %7, align 8
  %24 = icmp ne ptr %23, null
  br i1 %24, label %25, label %51

25:                                               ; preds = %21
  call void @llvm.lifetime.start.p0(i64 8, ptr %8) #6
  %26 = load ptr, ptr %7, align 8
  %27 = call ptr @GETSTRUCT(ptr noundef %26)
  store ptr %27, ptr %8, align 8
  %28 = load ptr, ptr %8, align 8
  %29 = getelementptr inbounds nuw %struct.FormData_pg_depend, ptr %28, i32 0, i32 3
  %30 = load i32, ptr %29, align 4
  %31 = icmp eq i32 %30, 2606
  br i1 %31, label %32, label %47

32:                                               ; preds = %25
  %33 = load ptr, ptr %8, align 8
  %34 = getelementptr inbounds nuw %struct.FormData_pg_depend, ptr %33, i32 0, i32 5
  %35 = load i32, ptr %34, align 4
  %36 = icmp eq i32 %35, 0
  br i1 %36, label %37, label %47

37:                                               ; preds = %32
  %38 = load ptr, ptr %8, align 8
  %39 = getelementptr inbounds nuw %struct.FormData_pg_depend, ptr %38, i32 0, i32 6
  %40 = load i8, ptr %39, align 4
  %41 = sext i8 %40 to i32
  %42 = icmp eq i32 %41, 105
  br i1 %42, label %43, label %47

43:                                               ; preds = %37
  %44 = load ptr, ptr %8, align 8
  %45 = getelementptr inbounds nuw %struct.FormData_pg_depend, ptr %44, i32 0, i32 4
  %46 = load i32, ptr %45, align 4
  store i32 %46, ptr %3, align 4
  store i32 3, ptr %9, align 4
  br label %48

47:                                               ; preds = %37, %32, %25
  store i32 0, ptr %9, align 4
  br label %48

48:                                               ; preds = %47, %43
  call void @llvm.lifetime.end.p0(i64 8, ptr %8) #6
  %49 = load i32, ptr %9, align 4
  switch i32 %49, label %55 [
    i32 0, label %50
    i32 3, label %51
  ]

50:                                               ; preds = %48
  br label %21, !llvm.loop !19

51:                                               ; preds = %48, %21
  %52 = load ptr, ptr %6, align 8
  call void @systable_endscan(ptr noundef %52)
  %53 = load ptr, ptr %4, align 8
  call void @table_close(ptr noundef %53, i32 noundef 1)
  %54 = load i32, ptr %3, align 4
  store i32 1, ptr %9, align 4
  call void @llvm.lifetime.end.p0(i64 8, ptr %7) #6
  call void @llvm.lifetime.end.p0(i64 8, ptr %6) #6
  call void @llvm.lifetime.end.p0(i64 216, ptr %5) #6
  call void @llvm.lifetime.end.p0(i64 8, ptr %4) #6
  call void @llvm.lifetime.end.p0(i64 4, ptr %3) #6
  ret i32 %54

55:                                               ; preds = %48
  unreachable
}