; Function Attrs: nounwind uwtable
define dso_local i32 @get_index_constraint(i32 noundef %0) local_unnamed_addr #0 {
  %2 = alloca [3 x %struct.ScanKeyData], align 16
  call void @llvm.lifetime.start.p0(i64 216, ptr nonnull %2) #7
  %3 = tail call ptr @table_open(i32 noundef 2608, i32 noundef 1) #7
  call void @ScanKeyInit(ptr noundef nonnull %2, i16 noundef signext 1, i16 noundef zeroext 3, i32 noundef 184, i64 noundef 1259) #7
  %4 = getelementptr inbounds nuw i8, ptr %2, i64 72
  %5 = zext i32 %0 to i64
  call void @ScanKeyInit(ptr noundef nonnull %4, i16 noundef signext 2, i16 noundef zeroext 3, i32 noundef 184, i64 noundef %5) #7
  %6 = getelementptr inbounds nuw i8, ptr %2, i64 144
  call void @ScanKeyInit(ptr noundef nonnull %6, i16 noundef signext 3, i16 noundef zeroext 3, i32 noundef 65, i64 noundef 0) #7
  %7 = call ptr @systable_beginscan(ptr noundef %3, i32 noundef 2673, i1 noundef zeroext true, ptr noundef null, i32 noundef 3, ptr noundef nonnull %2) #7
  %8 = call ptr @systable_getnext(ptr noundef %7) #7
  %.not16 = icmp eq ptr %8, null
  br i1 %.not16, label %.loopexit, label %.lr.ph

.lr.ph:                                           ; preds = %1, %28
  %9 = phi ptr [ %29, %28 ], [ %8, %1 ]
  %10 = getelementptr i8, ptr %9, i64 16
  %.val = load ptr, ptr %10, align 8
  %11 = getelementptr inbounds nuw i8, ptr %.val, i64 22
  %12 = load i8, ptr %11, align 2
  %13 = zext i8 %12 to i64
  %14 = getelementptr inbounds nuw i8, ptr %.val, i64 %13
  %15 = getelementptr inbounds nuw i8, ptr %14, i64 12
  %16 = load i32, ptr %15, align 4
  %17 = icmp eq i32 %16, 2606
  br i1 %17, label %18, label %28

18:                                               ; preds = %.lr.ph
  %19 = getelementptr inbounds nuw i8, ptr %14, i64 20
  %20 = load i32, ptr %19, align 4
  %21 = icmp eq i32 %20, 0
  br i1 %21, label %22, label %28

22:                                               ; preds = %18
  %23 = getelementptr inbounds nuw i8, ptr %14, i64 24
  %24 = load i8, ptr %23, align 4
  %25 = icmp eq i8 %24, 105
  br i1 %25, label %.thread, label %28

.thread:                                          ; preds = %22
  %26 = getelementptr inbounds nuw i8, ptr %14, i64 16
  %27 = load i32, ptr %26, align 4
  br label %.loopexit

28:                                               ; preds = %.lr.ph, %18, %22
  %29 = call ptr @systable_getnext(ptr noundef %7) #7
  %.not = icmp eq ptr %29, null
  br i1 %.not, label %.loopexit, label %.lr.ph

.loopexit:                                        ; preds = %28, %1, %.thread
  %.1 = phi i32 [ %27, %.thread ], [ 0, %1 ], [ 0, %28 ]
  call void @systable_endscan(ptr noundef %7) #7
  call void @table_close(ptr noundef %3, i32 noundef 1) #7
  call void @llvm.lifetime.end.p0(i64 216, ptr nonnull %2) #7
  ret i32 %.1
}